; Function Attrs: mustprogress uwtable
define void @_ZN3nix8readFileERKNSt7__cxx1112basic_stringIcSt11char_traitsIcESaIcEEE(ptr dead_on_unwind noalias writable sret(%"class.std::__cxx11::basic_string") align 8 %0, ptr noundef nonnull align 8 dereferenceable(32) %1) local_unnamed_addr #2 personality ptr @__gxx_personality_v0 {
  %3 = alloca %"class.nix::AutoCloseFD", align 4
  %4 = load ptr, ptr %1, align 8
  %5 = tail call i32 (ptr, i32, ...) @open(ptr noundef %4, i32 noundef 524288)
  call void @_ZN3nix11AutoCloseFDC1Ei(ptr noundef nonnull align 4 dereferenceable(4) %3, i32 noundef %5)
  %6 = invoke noundef zeroext i1 @_ZNK3nix11AutoCloseFDcvbEv(ptr noundef nonnull align 4 dereferenceable(4) %3)
          to label %7 unwind label %12

7:                                                ; preds = %2
  br i1 %6, label %16, label %8

8:                                                ; preds = %7
  %9 = call ptr @__cxa_allocate_exception(i64 384) #29
  %10 = tail call ptr @__errno_location() #31
  %11 = load i32, ptr %10, align 4
  invoke void @_ZN3nix8SysErrorC2IJA19_cNSt7__cxx1112basic_stringIcSt11char_traitsIcESaIcEEEEEEiDpRKT_(ptr noundef nonnull align 8 dereferenceable(380) %9, i32 noundef %11, ptr noundef nonnull align 1 dereferenceable(19) @.str.14, ptr noundef nonnull align 8 dereferenceable(32) %1)
          to label %_ZN3nix8SysErrorC2IJA19_cNSt7__cxx1112basic_stringIcSt11char_traitsIcESaIcEEEEEEDpRKT_.exit unwind label %14

_ZN3nix8SysErrorC2IJA19_cNSt7__cxx1112basic_stringIcSt11char_traitsIcESaIcEEEEEEDpRKT_.exit: ; preds = %8
  invoke void @__cxa_throw(ptr nonnull %9, ptr nonnull @_ZTIN3nix8SysErrorE, ptr nonnull @_ZN3nix8SysErrorD2Ev) #32
          to label %21 unwind label %12

12:                                               ; preds = %18, %16, %_ZN3nix8SysErrorC2IJA19_cNSt7__cxx1112basic_stringIcSt11char_traitsIcESaIcEEEEEEDpRKT_.exit, %2
  %13 = landingpad { ptr, i32 }
          cleanup
  br label %20

14:                                               ; preds = %8
  %15 = landingpad { ptr, i32 }
          cleanup
  call void @__cxa_free_exception(ptr %9) #29
  br label %20

16:                                               ; preds = %7
  %17 = invoke noundef i32 @_ZNK3nix11AutoCloseFD3getEv(ptr noundef nonnull align 4 dereferenceable(4) %3)
          to label %18 unwind label %12

18:                                               ; preds = %16
  invoke void @_ZN3nix8readFileB5cxx11Ei(ptr dead_on_unwind writable sret(%"class.std::__cxx11::basic_string") align 8 %0, i32 noundef %17)
          to label %19 unwind label %12

19:                                               ; preds = %18
  call void @_ZN3nix11AutoCloseFDD1Ev(ptr noundef nonnull align 4 dereferenceable(4) %3) #29
  ret void

20:                                               ; preds = %14, %12
  %.pn = phi { ptr, i32 } [ %13, %12 ], [ %15, %14 ]
  call void @_ZN3nix11AutoCloseFDD1Ev(ptr noundef nonnull align 4 dereferenceable(4) %3) #29
  resume { ptr, i32 } %.pn

21:                                               ; preds = %_ZN3nix8SysErrorC2IJA19_cNSt7__cxx1112basic_stringIcSt11char_traitsIcESaIcEEEEEEDpRKT_.exit
  unreachable
}